; Function Attrs: mustprogress uwtable
define internal fastcc void @_ZL15getPyObjectAttrB5cxx11P7_objectPKc(ptr dead_on_unwind noalias nonnull writable align 8 %0, ptr noundef %1, ptr noundef %2) unnamed_addr #3 personality ptr @__gxx_personality_v0 {
  tail call void @_ZNSt7__cxx1112basic_stringIcSt11char_traitsIcESaIcEEC1Ev(ptr noundef nonnull align 8 dereferenceable(32) %0) #12
  %4 = invoke ptr @PyObject_GetAttrString(ptr noundef %1, ptr noundef %2)
          to label %5 unwind label %10

5:                                                ; preds = %3
  %.not = icmp eq ptr %4, null
  br i1 %.not, label %12, label %6

6:                                                ; preds = %5
  %7 = invoke fastcc noundef zeroext i1 @_ZL16getUnicodeStringP7_objectRNSt7__cxx1112basic_stringIcSt11char_traitsIcESaIcEEE(ptr noundef nonnull %4, ptr noundef nonnull align 8 dereferenceable(32) %0)
          to label %8 unwind label %10

8:                                                ; preds = %6
  br i1 %7, label %12, label %9

9:                                                ; preds = %8
  tail call void @_ZNSt7__cxx1112basic_stringIcSt11char_traitsIcESaIcEE5clearEv(ptr noundef nonnull align 8 dereferenceable(32) %0) #12
  br label %12

10:                                               ; preds = %22, %16, %6, %3
  %11 = landingpad { ptr, i32 }
          cleanup
  tail call void @_ZNSt7__cxx1112basic_stringIcSt11char_traitsIcESaIcEED1Ev(ptr noundef nonnull align 8 dereferenceable(32) %0) #12
  resume { ptr, i32 } %11

12:                                               ; preds = %9, %8, %5
  %13 = getelementptr i8, ptr %1, i64 8
  %.val = load ptr, ptr %13, align 8
  %.not9 = icmp eq ptr %.val, @PyType_Type
  br i1 %.not9, label %14, label %20

14:                                               ; preds = %12
  %15 = tail call noundef zeroext i1 @_ZNKSt7__cxx1112basic_stringIcSt11char_traitsIcESaIcEE5emptyEv(ptr noundef nonnull align 8 dereferenceable(32) %0) #12
  br i1 %15, label %16, label %20

16:                                               ; preds = %14
  %17 = getelementptr inbounds i8, ptr %1, i64 24
  %18 = load ptr, ptr %17, align 8
  %19 = invoke noundef nonnull align 8 dereferenceable(32) ptr @_ZNSt7__cxx1112basic_stringIcSt11char_traitsIcESaIcEEaSEPKc(ptr noundef nonnull align 8 dereferenceable(32) %0, ptr noundef %18)
          to label %20 unwind label %10

20:                                               ; preds = %16, %14, %12
  %21 = tail call noundef zeroext i1 @_ZNKSt7__cxx1112basic_stringIcSt11char_traitsIcESaIcEE5emptyEv(ptr noundef nonnull align 8 dereferenceable(32) %0) #12
  br i1 %21, label %22, label %24

22:                                               ; preds = %20
  %23 = invoke noundef nonnull align 8 dereferenceable(32) ptr @_ZNSt7__cxx1112basic_stringIcSt11char_traitsIcESaIcEEaSEPKc(ptr noundef nonnull align 8 dereferenceable(32) %0, ptr noundef nonnull @.str.79)
          to label %24 unwind label %10

24:                                               ; preds = %20, %22
  ret void
}